target datalayout = "e-m:e-p270:32:32-p271:32:32-p272:64:64-i64:64-i128:128-f80:128-n8:16:32:64-S128"
target triple = "x86_64-pc-linux-gnu"

%struct.CodedBitstreamFragment = type { ptr, i64, i64, ptr, i32, i32, ptr }
%struct.CodedBitstreamUnit = type { i32, ptr, i64, i64, ptr, ptr, ptr }

; Function Attrs: nounwind uwtable
define internal i32 @cbs_insert_unit(ptr noundef %0, i32 noundef %1) #3 {
  %3 = alloca i32, align 4
  %4 = alloca ptr, align 8
  %5 = alloca i32, align 4
  %6 = alloca ptr, align 8
  %7 = alloca i32, align 4
  store ptr %0, ptr %4, align 8, !tbaa !39
  store i32 %1, ptr %5, align 4, !tbaa !10
  call void @llvm.lifetime.start.p0(i64 8, ptr %6) #13
  %8 = load ptr, ptr %4, align 8, !tbaa !39
  %9 = getelementptr inbounds nuw %struct.CodedBitstreamFragment, ptr %8, i32 0, i32 4
  %10 = load i32, ptr %9, align 8, !tbaa !41
  %11 = load ptr, ptr %4, align 8, !tbaa !39
  %12 = getelementptr inbounds nuw %struct.CodedBitstreamFragment, ptr %11, i32 0, i32 5
  %13 = load i32, ptr %12, align 4, !tbaa !56
  %14 = icmp slt i32 %10, %13
  br i1 %14, label %15, label %42

15:                                               ; preds = %2
  %16 = load ptr, ptr %4, align 8, !tbaa !39
  %17 = getelementptr inbounds nuw %struct.CodedBitstreamFragment, ptr %16, i32 0, i32 6
  %18 = load ptr, ptr %17, align 8, !tbaa !45
  store ptr %18, ptr %6, align 8, !tbaa !50
  %19 = load i32, ptr %5, align 4, !tbaa !10
  %20 = load ptr, ptr %4, align 8, !tbaa !39
  %21 = getelementptr inbounds nuw %struct.CodedBitstreamFragment, ptr %20, i32 0, i32 4
  %22 = load i32, ptr %21, align 8, !tbaa !41
  %23 = icmp slt i32 %19, %22
  br i1 %23, label %24, label %41

24:                                               ; preds = %15
  %25 = load ptr, ptr %6, align 8, !tbaa !50
  %26 = load i32, ptr %5, align 4, !tbaa !10
  %27 = sext i32 %26 to i64
  %28 = getelementptr inbounds %struct.CodedBitstreamUnit, ptr %25, i64 %27
  %29 = getelementptr inbounds %struct.CodedBitstreamUnit, ptr %28, i64 1
  %30 = load ptr, ptr %6, align 8, !tbaa !50
  %31 = load i32, ptr %5, align 4, !tbaa !10
  %32 = sext i32 %31 to i64
  %33 = getelementptr inbounds %struct.CodedBitstreamUnit, ptr %30, i64 %32
  %34 = load ptr, ptr %4, align 8, !tbaa !39
  %35 = getelementptr inbounds nuw %struct.CodedBitstreamFragment, ptr %34, i32 0, i32 4
  %36 = load i32, ptr %35, align 8, !tbaa !41
  %37 = load i32, ptr %5, align 4, !tbaa !10
  %38 = sub nsw i32 %36, %37
  %39 = sext i32 %38 to i64
  %40 = mul i64 %39, 56
  call void @llvm.memmove.p0.p0.i64(ptr align 8 %29, ptr align 8 %33, i64 %40, i1 false)
  br label %41

41:                                               ; preds = %24, %15
  br label %103

42:                                               ; preds = %2
  %43 = load ptr, ptr %4, align 8, !tbaa !39
  %44 = getelementptr inbounds nuw %struct.CodedBitstreamFragment, ptr %43, i32 0, i32 4
  %45 = load i32, ptr %44, align 8, !tbaa !41
  %46 = mul nsw i32 %45, 2
  %47 = add nsw i32 %46, 1
  %48 = sext i32 %47 to i64
  %49 = call ptr @av_malloc_array(i64 noundef %48, i64 noundef 56)
  store ptr %49, ptr %6, align 8, !tbaa !50
  %50 = load ptr, ptr %6, align 8, !tbaa !50
  %51 = icmp ne ptr %50, null
  br i1 %51, label %53, label %52

52:                                               ; preds = %42
  store i32 -12, ptr %3, align 4
  store i32 1, ptr %7, align 4
  br label %112

53:                                               ; preds = %42
  %54 = load ptr, ptr %4, align 8, !tbaa !39
  %55 = getelementptr inbounds nuw %struct.CodedBitstreamFragment, ptr %54, i32 0, i32 5
  %56 = load i32, ptr %55, align 4, !tbaa !56
  %57 = mul nsw i32 2, %56
  %58 = add nsw i32 %57, 1
  %59 = load ptr, ptr %4, align 8, !tbaa !39
  %60 = getelementptr inbounds nuw %struct.CodedBitstreamFragment, ptr %59, i32 0, i32 5
  store i32 %58, ptr %60, align 4, !tbaa !56
  %61 = load i32, ptr %5, align 4, !tbaa !10
  %62 = icmp sgt i32 %61, 0
  br i1 %62, label %63, label %71

63:                                               ; preds = %53
  %64 = load ptr, ptr %6, align 8, !tbaa !50
  %65 = load ptr, ptr %4, align 8, !tbaa !39
  %66 = getelementptr inbounds nuw %struct.CodedBitstreamFragment, ptr %65, i32 0, i32 6
  %67 = load ptr, ptr %66, align 8, !tbaa !45
  %68 = load i32, ptr %5, align 4, !tbaa !10
  %69 = sext i32 %68 to i64
  %70 = mul i64 %69, 56
  call void @llvm.memcpy.p0.p0.i64(ptr align 8 %64, ptr align 8 %67, i64 %70, i1 false)
  br label %71

71:                                               ; preds = %63, %53
  %72 = load i32, ptr %5, align 4, !tbaa !10
  %73 = load ptr, ptr %4, align 8, !tbaa !39
  %74 = getelementptr inbounds nuw %struct.CodedBitstreamFragment, ptr %73, i32 0, i32 4
  %75 = load i32, ptr %74, align 8, !tbaa !41
  %76 = icmp slt i32 %72, %75
  br i1 %76, label %77, label %96

77:                                               ; preds = %71
  %78 = load ptr, ptr %6, align 8, !tbaa !50
  %79 = load i32, ptr %5, align 4, !tbaa !10
  %80 = sext i32 %79 to i64
  %81 = getelementptr inbounds %struct.CodedBitstreamUnit, ptr %78, i64 %80
  %82 = getelementptr inbounds %struct.CodedBitstreamUnit, ptr %81, i64 1
  %83 = load ptr, ptr %4, align 8, !tbaa !39
  %84 = getelementptr inbounds nuw %struct.CodedBitstreamFragment, ptr %83, i32 0, i32 6
  %85 = load ptr, ptr %84, align 8, !tbaa !45
  %86 = load i32, ptr %5, align 4, !tbaa !10
  %87 = sext i32 %86 to i64
  %88 = getelementptr inbounds %struct.CodedBitstreamUnit, ptr %85, i64 %87
  %89 = load ptr, ptr %4, align 8, !tbaa !39
  %90 = getelementptr inbounds nuw %struct.CodedBitstreamFragment, ptr %89, i32 0, i32 4
  %91 = load i32, ptr %90, align 8, !tbaa !41
  %92 = load i32, ptr %5, align 4, !tbaa !10
  %93 = sub nsw i32 %91, %92
  %94 = sext i32 %93 to i64
  %95 = mul i64 %94, 56
  call void @llvm.memcpy.p0.p0.i64(ptr align 8 %82, ptr align 8 %88, i64 %95, i1 false)
  br label %96

96:                                               ; preds = %77, %71
  %97 = load ptr, ptr %4, align 8, !tbaa !39
  %98 = getelementptr inbounds nuw %struct.CodedBitstreamFragment, ptr %97, i32 0, i32 6
  %99 = load ptr, ptr %98, align 8, !tbaa !45
  call void @av_free(ptr noundef %99)
  %100 = load ptr, ptr %6, align 8, !tbaa !50
  %101 = load ptr, ptr %4, align 8, !tbaa !39
  %102 = getelementptr inbounds nuw %struct.CodedBitstreamFragment, ptr %101, i32 0, i32 6
  store ptr %100, ptr %102, align 8, !tbaa !45
  br label %103

103:                                              ; preds = %96, %41
  %104 = load ptr, ptr %6, align 8, !tbaa !50
  %105 = load i32, ptr %5, align 4, !tbaa !10
  %106 = sext i32 %105 to i64
  %107 = getelementptr inbounds %struct.CodedBitstreamUnit, ptr %104, i64 %106
  call void @llvm.memset.p0.i64(ptr align 8 %107, i8 0, i64 56, i1 false)
  %108 = load ptr, ptr %4, align 8, !tbaa !39
  %109 = getelementptr inbounds nuw %struct.CodedBitstreamFragment, ptr %108, i32 0, i32 4
  %110 = load i32, ptr %109, align 8, !tbaa !41
  %111 = add nsw i32 %110, 1
  store i32 %111, ptr %109, align 8, !tbaa !41
  store i32 0, ptr %3, align 4
  store i32 1, ptr %7, align 4
  br label %112

112:                                              ; preds = %103, %52
  call void @llvm.lifetime.end.p0(i64 8, ptr %6) #13
  %113 = load i32, ptr %3, align 4
  ret i32 %113
}