; Function Attrs: nounwind uwtable
define internal fastcc range(i32 -12, 1) i32 @cbs_insert_unit(ptr noundef captures(none) %0, i32 noundef range(i32 0, -2147483648) %1) unnamed_addr #3 {
  %3 = getelementptr inbounds nuw i8, ptr %0, i64 32
  %4 = load i32, ptr %3, align 8, !tbaa !34
  %5 = getelementptr inbounds nuw i8, ptr %0, i64 36
  %6 = load i32, ptr %5, align 4, !tbaa !42
  %7 = icmp slt i32 %4, %6
  br i1 %7, label %8, label %19

8:                                                ; preds = %2
  %9 = getelementptr inbounds nuw i8, ptr %0, i64 40
  %10 = load ptr, ptr %9, align 8, !tbaa !38
  %11 = icmp slt i32 %1, %4
  br i1 %11, label %12, label %49

12:                                               ; preds = %8
  %13 = zext nneg i32 %1 to i64
  %14 = getelementptr inbounds nuw %struct.CodedBitstreamUnit, ptr %10, i64 %13
  %15 = getelementptr inbounds nuw i8, ptr %14, i64 56
  %16 = sub nsw i32 %4, %1
  %17 = sext i32 %16 to i64
  %18 = mul nsw i64 %17, 56
  tail call void @llvm.memmove.p0.p0.i64(ptr nonnull align 8 %15, ptr align 8 %14, i64 %18, i1 false)
  br label %49

19:                                               ; preds = %2
  %20 = shl nsw i32 %4, 1
  %21 = or disjoint i32 %20, 1
  %22 = sext i32 %21 to i64
  %23 = tail call ptr @av_malloc_array(i64 noundef %22, i64 noundef 56) #10
  %.not = icmp eq ptr %23, null
  br i1 %.not, label %54, label %24

24:                                               ; preds = %19
  %25 = load i32, ptr %5, align 4, !tbaa !42
  %26 = shl nsw i32 %25, 1
  %27 = or disjoint i32 %26, 1
  store i32 %27, ptr %5, align 4, !tbaa !42
  %.not39 = icmp eq i32 %1, 0
  br i1 %.not39, label %33, label %28

28:                                               ; preds = %24
  %29 = getelementptr inbounds nuw i8, ptr %0, i64 40
  %30 = load ptr, ptr %29, align 8, !tbaa !38
  %31 = zext nneg i32 %1 to i64
  %32 = mul nuw nsw i64 %31, 56
  tail call void @llvm.memcpy.p0.p0.i64(ptr nonnull align 8 %23, ptr align 8 %30, i64 %32, i1 false)
  br label %33

33:                                               ; preds = %28, %24
  %34 = load i32, ptr %3, align 8, !tbaa !34
  %35 = icmp slt i32 %1, %34
  br i1 %35, label %36, label %46

36:                                               ; preds = %33
  %37 = zext nneg i32 %1 to i64
  %38 = getelementptr inbounds nuw %struct.CodedBitstreamUnit, ptr %23, i64 %37
  %39 = getelementptr inbounds nuw i8, ptr %38, i64 56
  %40 = getelementptr inbounds nuw i8, ptr %0, i64 40
  %41 = load ptr, ptr %40, align 8, !tbaa !38
  %42 = getelementptr inbounds nuw %struct.CodedBitstreamUnit, ptr %41, i64 %37
  %43 = sub nsw i32 %34, %1
  %44 = sext i32 %43 to i64
  %45 = mul nsw i64 %44, 56
  tail call void @llvm.memcpy.p0.p0.i64(ptr nonnull align 8 %39, ptr align 8 %42, i64 %45, i1 false)
  br label %46

46:                                               ; preds = %36, %33
  %47 = getelementptr inbounds nuw i8, ptr %0, i64 40
  %48 = load ptr, ptr %47, align 8, !tbaa !38
  tail call void @av_free(ptr noundef %48) #10
  store ptr %23, ptr %47, align 8, !tbaa !38
  br label %49

49:                                               ; preds = %8, %12, %46
  %.0 = phi ptr [ %10, %12 ], [ %10, %8 ], [ %23, %46 ]
  %50 = zext nneg i32 %1 to i64
  %51 = getelementptr inbounds nuw %struct.CodedBitstreamUnit, ptr %.0, i64 %50
  tail call void @llvm.memset.p0.i64(ptr noundef nonnull align 8 dereferenceable(56) %51, i8 0, i64 56, i1 false)
  %52 = load i32, ptr %3, align 8, !tbaa !34
  %53 = add nsw i32 %52, 1
  store i32 %53, ptr %3, align 8, !tbaa !34
  br label %54

54:                                               ; preds = %19, %49
  %.033 = phi i32 [ 0, %49 ], [ -12, %19 ]
  ret i32 %.033
}